; Function Attrs: mustprogress nounwind willreturn uwtable
define void @Abc_SclObjMarkFanFans(ptr noundef %0, ptr noundef captures(none) %1) local_unnamed_addr #9 {
  %3 = getelementptr inbounds nuw i8, ptr %0, i64 20
  %4 = load i32, ptr %3, align 4
  %5 = and i32 %4, 32
  %6 = icmp eq i32 %5, 0
  br i1 %6, label %7, label %41

7:                                                ; preds = %2
  %8 = getelementptr inbounds nuw i8, ptr %1, i64 4
  %9 = load i32, ptr %8, align 4, !tbaa !42
  %10 = load i32, ptr %1, align 8, !tbaa !108
  %11 = icmp eq i32 %9, %10
  br i1 %11, label %12, label %.Vec_PtrGrow.exit11_crit_edge.i

.Vec_PtrGrow.exit11_crit_edge.i:                  ; preds = %7
  %.phi.trans.insert.i = getelementptr inbounds nuw i8, ptr %1, i64 8
  %.pre.i = load ptr, ptr %.phi.trans.insert.i, align 8, !tbaa !35
  br label %Vec_PtrPush.exit

12:                                               ; preds = %7
  %13 = icmp slt i32 %9, 16
  br i1 %13, label %14, label %22

14:                                               ; preds = %12
  %15 = getelementptr inbounds nuw i8, ptr %1, i64 8
  %16 = load ptr, ptr %15, align 8, !tbaa !35
  %.not9.i.i = icmp eq ptr %16, null
  br i1 %.not9.i.i, label %19, label %17

17:                                               ; preds = %14
  %18 = tail call dereferenceable_or_null(128) ptr @realloc(ptr noundef nonnull %16, i64 noundef 128) #25
  br label %Vec_PtrGrow.exit.i

19:                                               ; preds = %14
  %20 = tail call noalias dereferenceable_or_null(128) ptr @malloc(i64 noundef 128) #26
  br label %Vec_PtrGrow.exit.i

Vec_PtrGrow.exit.i:                               ; preds = %19, %17
  %21 = phi ptr [ %18, %17 ], [ %20, %19 ]
  store ptr %21, ptr %15, align 8, !tbaa !35
  store i32 16, ptr %1, align 8, !tbaa !108
  br label %Vec_PtrPush.exit

22:                                               ; preds = %12
  %23 = shl nuw nsw i32 %9, 1
  %24 = getelementptr inbounds nuw i8, ptr %1, i64 8
  %25 = load ptr, ptr %24, align 8, !tbaa !35
  %.not9.i10.i = icmp eq ptr %25, null
  %26 = zext nneg i32 %23 to i64
  %27 = shl nuw nsw i64 %26, 3
  br i1 %.not9.i10.i, label %30, label %28

28:                                               ; preds = %22
  %29 = tail call ptr @realloc(ptr noundef nonnull %25, i64 noundef %27) #25
  br label %32

30:                                               ; preds = %22
  %31 = tail call noalias ptr @malloc(i64 noundef %27) #26
  br label %32

32:                                               ; preds = %30, %28
  %33 = phi ptr [ %29, %28 ], [ %31, %30 ]
  store ptr %33, ptr %24, align 8, !tbaa !35
  store i32 %23, ptr %1, align 8, !tbaa !108
  br label %Vec_PtrPush.exit

Vec_PtrPush.exit:                                 ; preds = %.Vec_PtrGrow.exit11_crit_edge.i, %Vec_PtrGrow.exit.i, %32
  %34 = phi ptr [ %.pre.i, %.Vec_PtrGrow.exit11_crit_edge.i ], [ %33, %32 ], [ %21, %Vec_PtrGrow.exit.i ]
  %35 = load i32, ptr %8, align 4, !tbaa !42
  %36 = add nsw i32 %35, 1
  store i32 %36, ptr %8, align 4, !tbaa !42
  %37 = sext i32 %35 to i64
  %38 = getelementptr inbounds ptr, ptr %34, i64 %37
  store ptr %0, ptr %38, align 8, !tbaa !37
  %39 = load i32, ptr %3, align 4
  %40 = or i32 %39, 32
  store i32 %40, ptr %3, align 4
  br label %41

41:                                               ; preds = %Vec_PtrPush.exit, %2
  ret void
}